target datalayout = "e-m:e-p270:32:32-p271:32:32-p272:64:64-i64:64-i128:128-f80:128-n8:16:32:64-S128"
target triple = "x86_64-pc-linux-gnu"

%struct.ComplexMatrixN = type { i32, ptr, ptr }

; Function Attrs: nounwind uwtable
define void @setConjugateMatrixN(ptr noundef byval(%struct.ComplexMatrixN) align 8 %0) #0 {
  %2 = alloca i32, align 4
  %3 = alloca i32, align 4
  %4 = alloca i32, align 4
  %5 = alloca i32, align 4
  call void @llvm.lifetime.start.p0(i64 4, ptr %2) #8
  %6 = getelementptr inbounds nuw %struct.ComplexMatrixN, ptr %0, i32 0, i32 0
  %7 = load i32, ptr %6, align 8, !tbaa !22
  %8 = shl i32 1, %7
  store i32 %8, ptr %2, align 4, !tbaa !9
  call void @llvm.lifetime.start.p0(i64 4, ptr %3) #8
  store i32 0, ptr %3, align 4, !tbaa !9
  br label %9

9:                                                ; preds = %64, %1
  %10 = load i32, ptr %3, align 4, !tbaa !9
  %11 = load i32, ptr %2, align 4, !tbaa !9
  %12 = icmp slt i32 %10, %11
  br i1 %12, label %14, label %13

13:                                               ; preds = %9
  store i32 2, ptr %4, align 4
  call void @llvm.lifetime.end.p0(i64 4, ptr %3) #8
  br label %67

14:                                               ; preds = %9
  call void @llvm.lifetime.start.p0(i64 4, ptr %5) #8
  store i32 0, ptr %5, align 4, !tbaa !9
  br label %15

15:                                               ; preds = %60, %14
  %16 = load i32, ptr %5, align 4, !tbaa !9
  %17 = load i32, ptr %2, align 4, !tbaa !9
  %18 = icmp slt i32 %16, %17
  br i1 %18, label %20, label %19

19:                                               ; preds = %15
  store i32 5, ptr %4, align 4
  call void @llvm.lifetime.end.p0(i64 4, ptr %5) #8
  br label %63

20:                                               ; preds = %15
  %21 = getelementptr inbounds nuw %struct.ComplexMatrixN, ptr %0, i32 0, i32 1
  %22 = load ptr, ptr %21, align 8, !tbaa !26
  %23 = load i32, ptr %3, align 4, !tbaa !9
  %24 = sext i32 %23 to i64
  %25 = getelementptr inbounds ptr, ptr %22, i64 %24
  %26 = load ptr, ptr %25, align 8, !tbaa !27
  %27 = load i32, ptr %5, align 4, !tbaa !9
  %28 = sext i32 %27 to i64
  %29 = getelementptr inbounds double, ptr %26, i64 %28
  %30 = load double, ptr %29, align 8, !tbaa !18
  %31 = getelementptr inbounds nuw %struct.ComplexMatrixN, ptr %0, i32 0, i32 1
  %32 = load ptr, ptr %31, align 8, !tbaa !26
  %33 = load i32, ptr %3, align 4, !tbaa !9
  %34 = sext i32 %33 to i64
  %35 = getelementptr inbounds ptr, ptr %32, i64 %34
  %36 = load ptr, ptr %35, align 8, !tbaa !27
  %37 = load i32, ptr %5, align 4, !tbaa !9
  %38 = sext i32 %37 to i64
  %39 = getelementptr inbounds double, ptr %36, i64 %38
  store double %30, ptr %39, align 8, !tbaa !18
  %40 = getelementptr inbounds nuw %struct.ComplexMatrixN, ptr %0, i32 0, i32 2
  %41 = load ptr, ptr %40, align 8, !tbaa !29
  %42 = load i32, ptr %3, align 4, !tbaa !9
  %43 = sext i32 %42 to i64
  %44 = getelementptr inbounds ptr, ptr %41, i64 %43
  %45 = load ptr, ptr %44, align 8, !tbaa !27
  %46 = load i32, ptr %5, align 4, !tbaa !9
  %47 = sext i32 %46 to i64
  %48 = getelementptr inbounds double, ptr %45, i64 %47
  %49 = load double, ptr %48, align 8, !tbaa !18
  %50 = fneg double %49
  %51 = getelementptr inbounds nuw %struct.ComplexMatrixN, ptr %0, i32 0, i32 2
  %52 = load ptr, ptr %51, align 8, !tbaa !29
  %53 = load i32, ptr %3, align 4, !tbaa !9
  %54 = sext i32 %53 to i64
  %55 = getelementptr inbounds ptr, ptr %52, i64 %54
  %56 = load ptr, ptr %55, align 8, !tbaa !27
  %57 = load i32, ptr %5, align 4, !tbaa !9
  %58 = sext i32 %57 to i64
  %59 = getelementptr inbounds double, ptr %56, i64 %58
  store double %50, ptr %59, align 8, !tbaa !18
  br label %60

60:                                               ; preds = %20
  %61 = load i32, ptr %5, align 4, !tbaa !9
  %62 = add nsw i32 %61, 1
  store i32 %62, ptr %5, align 4, !tbaa !9
  br label %15

63:                                               ; preds = %19
  br label %64

64:                                               ; preds = %63
  %65 = load i32, ptr %3, align 4, !tbaa !9
  %66 = add nsw i32 %65, 1
  store i32 %66, ptr %3, align 4, !tbaa !9
  br label %9

67:                                               ; preds = %13
  call void @llvm.lifetime.end.p0(i64 4, ptr %2) #8
  ret void
}