; Function Attrs: nofree norecurse nosync nounwind memory(readwrite, inaccessiblemem: none) uwtable
define void @setConjugateMatrixN(ptr noundef readonly byval(%struct.ComplexMatrixN) align 8 captures(none) %0) local_unnamed_addr #8 {
  %2 = load i32, ptr %0, align 8, !tbaa !14
  %.not = icmp eq i32 %2, 31
  br i1 %.not, label %._crit_edge18, label %.preheader.lr.ph

.preheader.lr.ph:                                 ; preds = %1
  %3 = shl nuw nsw i32 1, %2
  %4 = getelementptr inbounds nuw i8, ptr %0, i64 16
  %5 = load ptr, ptr %4, align 8
  %wide.trip.count23 = zext nneg i32 %3 to i64
  br label %.preheader.us

.preheader.us:                                    ; preds = %._crit_edge.us, %.preheader.lr.ph
  %indvars.iv20 = phi i64 [ %indvars.iv.next21, %._crit_edge.us ], [ 0, %.preheader.lr.ph ]
  %6 = getelementptr inbounds nuw ptr, ptr %5, i64 %indvars.iv20
  %7 = load ptr, ptr %6, align 8, !tbaa !19
  br label %8

8:                                                ; preds = %.preheader.us, %8
  %indvars.iv = phi i64 [ 0, %.preheader.us ], [ %indvars.iv.next, %8 ]
  %9 = getelementptr inbounds nuw double, ptr %7, i64 %indvars.iv
  %10 = load double, ptr %9, align 8, !tbaa !13
  %11 = fneg double %10
  store double %11, ptr %9, align 8, !tbaa !13
  %indvars.iv.next = add nuw nsw i64 %indvars.iv, 1
  %exitcond.not = icmp eq i64 %indvars.iv.next, %wide.trip.count23
  br i1 %exitcond.not, label %._crit_edge.us, label %8

._crit_edge.us:                                   ; preds = %8
  %indvars.iv.next21 = add nuw nsw i64 %indvars.iv20, 1
  %exitcond24.not = icmp eq i64 %indvars.iv.next21, %wide.trip.count23
  br i1 %exitcond24.not, label %._crit_edge18, label %.preheader.us

._crit_edge18:                                    ; preds = %._crit_edge.us, %1
  ret void
}